; Function Attrs: mustprogress nounwind uwtable
define dso_local noundef i64 @_ZNK4Luau8TypePath8PathHashclERKNS0_8PropertyE(ptr noundef nonnull readnone align 1 captures(none) dereferenceable(1) %0, ptr noundef nonnull readonly align 8 captures(none) dereferenceable(33) %1) local_unnamed_addr #9 align 2 personality ptr @__gxx_personality_v0 {
  %3 = load ptr, ptr %1, align 8, !tbaa !22
  %4 = getelementptr inbounds nuw i8, ptr %1, i64 8
  %5 = load i64, ptr %4, align 8, !tbaa !25
  %6 = invoke noundef i64 @_ZSt11_Hash_bytesPKvmm(ptr noundef %3, i64 noundef %5, i64 noundef 3339675911)
          to label %_ZNKSt4hashINSt7__cxx1112basic_stringIcSt11char_traitsIcESaIcEEEEclERKS5_.exit unwind label %7

7:                                                ; preds = %2
  %8 = landingpad { ptr, i32 }
          catch ptr null
  %9 = extractvalue { ptr, i32 } %8, 0
  tail call void @__clang_call_terminate(ptr %9) #27
  unreachable

_ZNKSt4hashINSt7__cxx1112basic_stringIcSt11char_traitsIcESaIcEEEEclERKS5_.exit: ; preds = %2
  %10 = getelementptr inbounds nuw i8, ptr %1, i64 32
  %11 = load i8, ptr %10, align 8, !tbaa !27, !range !30, !noundef !42
  %12 = zext nneg i8 %11 to i64
  %13 = xor i64 %6, %12
  ret i64 %13
}